Archive member included to satisfy reference by file (symbol)

../lib/libstdio.a(sprintf.o)  console.o (sprintf)
../lib/libstring.a(strcmp.o)  console.o (strcmp)
../lib/libstring.a(strncmp.o)
                              console.o (strncmp)
../lib/libstring.a(memcmp.o)  tek.o (memcmp)

Memory Configuration

Name             Origin             Length             Attributes
*default*        0x0000000000000000 0xffffffffffffffff

Linker script and memory map

LOAD boot.o
LOAD naskfunc.o
LOAD hankaku.o
LOAD graphic.o
LOAD dsctbl.o
LOAD int.o
LOAD queue.o
LOAD keyboard.o
LOAD mouse.o
LOAD memory.o
LOAD sheet.o
LOAD timer.o
LOAD mtask.o
LOAD window.o
LOAD console.o
LOAD file.o
LOAD tek.o
LOAD ../lib/libstdio.a
LOAD ../lib/libstring.a
LOAD ../lib/libstdlib.a

.head           0x0000000000000000       0x24
                0x0000000000000000        0x4 LONG 0x10000
                0x0000000000000004        0x4 LONG 0x69726148
                0x0000000000000008        0x4 LONG 0x0
                0x000000000000000c        0x4 LONG 0x310000
                0x0000000000000010        0x4 LONG 0x3be9 SIZEOF (.data)
                0x0000000000000014        0x4 LONG 0x8966 LOADADDR (.data)
                0x0000000000000018        0x4 LONG 0xe9000000
                0x000000000000001c        0x4 LONG 0x10 (Boot - 0x20)
                0x0000000000000020        0x4 LONG 0x0

.text           0x0000000000000030     0x8936
 *(.text)
 .text          0x0000000000000030     0x1257 boot.o
                0x0000000000000030                Boot
                0x0000000000000ec5                key_window_off
                0x0000000000000f03                key_window_on
                0x0000000000000f41                open_console_task
                0x0000000000001040                open_console
                0x00000000000011da                close_console_task
                0x0000000000001239                close_console
 *fill*         0x0000000000001287        0x9 
 .text          0x0000000000001290      0x1c3 naskfunc.o
                0x0000000000001290                io_hlt
                0x0000000000001292                io_cli
                0x0000000000001294                io_sti
                0x0000000000001296                io_stihlt
                0x0000000000001299                io_in8
                0x00000000000012a4                io_in16
                0x00000000000012b0                io_in32
                0x00000000000012b6                io_out8
                0x00000000000012c0                io_out16
                0x00000000000012cb                io_out32
                0x00000000000012d5                io_load_eflags
                0x00000000000012d8                io_store_eflags
                0x00000000000012df                load_gdtr
                0x00000000000012ef                load_idtr
                0x00000000000012ff                load_cr0
                0x0000000000001303                store_cr0
                0x000000000000130b                load_tr
                0x0000000000001311                asm_inthandler20
                0x0000000000001328                asm_inthandler21
                0x000000000000133f                asm_inthandler27
                0x0000000000001356                asm_inthandler2c
                0x000000000000136d                asm_inthandler0c
                0x0000000000001391                asm_inthandler0d
                0x00000000000013b1                farjmp
                0x00000000000013b6                farcall
                0x00000000000013bb                memtest_sub
                0x00000000000013fd                asm_hrb_api
                0x000000000000141a                asm_end_app
                0x0000000000001425                start_app
 .text          0x0000000000001453        0x0 hankaku.o
 .text          0x0000000000001453      0x9dc graphic.o
                0x0000000000001453                init_palette
                0x00000000000015ba                set_palette
                0x0000000000001660                boxfill8
                0x00000000000016af                init_screen8
                0x00000000000018ca                putfont8
                0x00000000000019c2                putfonts8_asc
                0x0000000000001cf2                init_mouse_cursor8
                0x0000000000001dc4                putblock8_8
 .text          0x0000000000001e2f      0x261 dsctbl.o
                0x0000000000001e2f                init_gdtidt
                0x0000000000001fda                set_segmdesc
                0x0000000000002051                set_gatedesc
 .text          0x0000000000002090       0xf3 int.o
                0x0000000000002090                init_pic
                0x000000000000216b                inthandler27
 .text          0x0000000000002183      0x178 queue.o
                0x0000000000002183                queue32_init
                0x00000000000021ca                queue32_put
                0x0000000000002277                queue32_get
                0x00000000000022e6                queue32_status
 .text          0x00000000000022fb       0xa6 keyboard.o
                0x00000000000022fb                inthandler21
                0x0000000000002340                wait_KBC_sendready
                0x0000000000002360                init_keyboard
 .text          0x00000000000023a1      0x1d8 mouse.o
                0x00000000000023a1                inthandler2c
                0x00000000000023f8                enable_mouse
                0x0000000000002446                mouse_decode
 .text          0x0000000000002579      0x4a9 memory.o
                0x0000000000002579                memtest
                0x0000000000002630                memman_init
                0x000000000000265d                memman_total
                0x0000000000002695                memman_alloc
                0x000000000000277b                memman_free
                0x00000000000029c7                memman_alloc_4k
                0x00000000000029f3                memman_free_4k
 .text          0x0000000000002a22      0xf47 sheet.o
                0x0000000000002a22                shtctl_init
                0x0000000000002b04                sheet_alloc
                0x0000000000002b84                sheet_setbuf
                0x0000000000002bad                sheet_refreshmap
                0x0000000000002ebf                sheet_refreshsub
                0x0000000000003451                sheet_updown
                0x00000000000037be                sheet_refresh
                0x000000000000382f                sheet_slide
                0x0000000000003942                sheet_free
 .text          0x0000000000003969      0x3b2 timer.o
                0x0000000000003969                init_pit
                0x0000000000003a11                timer_alloc
                0x0000000000003a77                timer_free
                0x0000000000003a84                timer_init
                0x0000000000003a9c                timer_settime
                0x0000000000003b48                inthandler20
                0x0000000000003bf3                timer_cancel
                0x0000000000003c8f                timer_cancel_all
 .text          0x0000000000003d1b      0x742 mtask.o
                0x0000000000003d1b                task_now
                0x0000000000003d60                task_add
                0x0000000000003dbe                task_remove
                0x0000000000003e8e                task_switchsub
                0x0000000000003eee                task_idle
                0x0000000000003efb                task_init
                0x000000000000419a                task_alloc
                0x00000000000042ac                task_run
                0x0000000000004319                task_sleep
                0x0000000000004369                task_switch
 .text          0x000000000000445d      0x67a window.o
                0x000000000000445d                make_window8
                0x00000000000045e7                make_wtitle8
                0x00000000000046d6                putfonts8_asc_sht
                0x00000000000047f3                make_textbox8
                0x00000000000049f2                change_wtitle8
 .text          0x0000000000004ad7     0x1ce8 console.o
                0x0000000000004ad7                console_task
                0x0000000000004eda                cons_putchar
                0x0000000000004ff5                cons_putstr0
                0x0000000000005025                cons_putstr1
                0x0000000000005060                cons_newline
                0x000000000000519a                cons_run_cmd
                0x0000000000005315                cmd_free
                0x0000000000005363                cmd_clear
                0x00000000000053df                cmd_ls
                0x000000000000550a                cmd_exit
                0x000000000000561d                cmd_start
                0x00000000000056d4                cmd_ncst
                0x0000000000005756                cmd_lang
                0x00000000000057aa                cmd_app
                0x0000000000005b6b                hrb_api
                0x00000000000065d3                inthandler0c
                0x0000000000006637                inthandler0d
                0x000000000000669b                hrb_draw_line_window
 .text          0x00000000000067bf      0x360 file.o
                0x00000000000067bf                file_read_fat
                0x0000000000006869                file_load_file
                0x000000000000690d                file_search
                0x0000000000006a6a                file_load_file2
 .text          0x0000000000006b1f     0x1bb0 tek.o
                0x0000000000006b69                tek_getsize
                0x0000000000006bcc                tek_decomp
 .text          0x00000000000086cf      0x1a1 ../lib/libstdio.a(sprintf.o)
                0x00000000000086cf                dec2asc
                0x0000000000008749                hex2asc
                0x00000000000087d4                sprintf
 .text          0x0000000000008870       0x45 ../lib/libstring.a(strcmp.o)
                0x0000000000008870                strcmp
 .text          0x00000000000088b5       0x5f ../lib/libstring.a(strncmp.o)
                0x00000000000088b5                strncmp
 .text          0x0000000000008914       0x52 ../lib/libstring.a(memcmp.o)
                0x0000000000008914                memcmp

.data           0x0000000000310000     0x3be9 load address 0x0000000000008966
 *(.data)
 .data          0x0000000000310000      0x100 boot.o
 .data          0x0000000000310100     0x1000 hankaku.o
                0x0000000000310100                hankaku
 .data          0x0000000000311100      0x140 graphic.o
 .data          0x0000000000311240        0x0 dsctbl.o
 .data          0x0000000000311240        0x0 int.o
 .data          0x0000000000311240        0x0 queue.o
 .data          0x0000000000311240        0x0 keyboard.o
 .data          0x0000000000311240        0x0 mouse.o
 .data          0x0000000000311240        0x0 memory.o
 .data          0x0000000000311240        0x0 sheet.o
 .data          0x0000000000311240        0x0 timer.o
 .data          0x0000000000311240        0x0 mtask.o
 .data          0x0000000000311240       0xe0 window.o
 .data          0x0000000000311320        0x0 console.o
 .data          0x0000000000311320        0x0 file.o
 .data          0x0000000000311320       0x70 tek.o
 .data          0x0000000000311390        0x0 ../lib/libstdio.a(sprintf.o)
 .data          0x0000000000311390        0x0 ../lib/libstring.a(strcmp.o)
 .data          0x0000000000311390        0x0 ../lib/libstring.a(strncmp.o)
 .data          0x0000000000311390        0x0 ../lib/libstring.a(memcmp.o)
 *(.rodata*)
 .rodata        0x0000000000311390       0x26 boot.o
 *fill*         0x00000000003113b6        0x2 
 .rodata        0x00000000003113b8       0xe5 console.o
 *(.bss)
 .bss           0x000000000031149d        0x0 boot.o
 .bss           0x000000000031149d        0x0 hankaku.o
 .bss           0x000000000031149d        0x0 graphic.o
 .bss           0x000000000031149d        0x0 dsctbl.o
 .bss           0x000000000031149d        0x0 int.o
 .bss           0x000000000031149d        0x0 queue.o
 *fill*         0x000000000031149d        0x3 
 .bss           0x00000000003114a0        0x8 keyboard.o
                0x00000000003114a0                keyqueue
                0x00000000003114a4                keydata0
 .bss           0x00000000003114a8        0x8 mouse.o
                0x00000000003114a8                mousequeue
                0x00000000003114ac                mousedata0
 .bss           0x00000000003114b0        0x0 memory.o
 .bss           0x00000000003114b0        0x0 sheet.o
 *fill*         0x00000000003114b0       0x10 
 .bss           0x00000000003114c0     0x2720 timer.o
                0x00000000003114c0                timerctl
 .bss           0x0000000000313be0        0x8 mtask.o
                0x0000000000313be0                taskctl
                0x0000000000313be4                task_timer
 .bss           0x0000000000313be8        0x0 window.o
 .bss           0x0000000000313be8        0x0 console.o
 .bss           0x0000000000313be8        0x0 file.o
 .bss           0x0000000000313be8        0x1 tek.o
 .bss           0x0000000000313be9        0x0 ../lib/libstdio.a(sprintf.o)
 .bss           0x0000000000313be9        0x0 ../lib/libstring.a(strcmp.o)
 .bss           0x0000000000313be9        0x0 ../lib/libstring.a(strncmp.o)
 .bss           0x0000000000313be9        0x0 ../lib/libstring.a(memcmp.o)

/DISCARD/
 *(.eh_frame)
OUTPUT(boot.hrb binary)

.comment        0x0000000000000000      0x17c
 .comment       0x0000000000000000       0x13 boot.o
 .comment       0x0000000000000013       0x13 hankaku.o
 .comment       0x0000000000000026       0x13 graphic.o
 .comment       0x0000000000000039       0x13 dsctbl.o
 .comment       0x000000000000004c       0x13 int.o
 .comment       0x000000000000005f       0x13 queue.o
 .comment       0x0000000000000072       0x13 keyboard.o
 .comment       0x0000000000000085       0x13 mouse.o
 .comment       0x0000000000000098       0x13 memory.o
 .comment       0x00000000000000ab       0x13 sheet.o
 .comment       0x00000000000000be       0x13 timer.o
 .comment       0x00000000000000d1       0x13 mtask.o
 .comment       0x00000000000000e4       0x13 window.o
 .comment       0x00000000000000f7       0x13 console.o
 .comment       0x000000000000010a       0x13 file.o
 .comment       0x000000000000011d       0x13 tek.o
 .comment       0x0000000000000130       0x13 ../lib/libstdio.a(sprintf.o)
 .comment       0x0000000000000143       0x13 ../lib/libstring.a(strcmp.o)
 .comment       0x0000000000000156       0x13 ../lib/libstring.a(strncmp.o)
 .comment       0x0000000000000169       0x13 ../lib/libstring.a(memcmp.o)

.debug_aranges  0x0000000000000000       0x20
 .debug_aranges
                0x0000000000000000       0x20 naskfunc.o

.debug_pubnames
                0x0000000000000000        0x0
 .debug_pubnames
                0x0000000000000000        0x0 naskfunc.o

.debug_info     0x0000000000000000       0x3f
 .debug_info    0x0000000000000000       0x3f naskfunc.o

.debug_abbrev   0x0000000000000000       0x1b
 .debug_abbrev  0x0000000000000000       0x1b naskfunc.o

.debug_line     0x0000000000000000      0x116
 .debug_line    0x0000000000000000      0x116 naskfunc.o

.debug_frame    0x0000000000000000        0x0
 .debug_frame   0x0000000000000000        0x0 naskfunc.o

.debug_loc      0x0000000000000000        0x0
 .debug_loc     0x0000000000000000        0x0 naskfunc.o
